target datalayout = "e-m:e-p270:32:32-p271:32:32-p272:64:64-i64:64-i128:128-f80:128-n8:16:32:64-S128"
target triple = "x86_64-pc-linux-gnu"

%struct.tcpcl_conversation_t = type { ptr, ptr, ptr, i8, i8, ptr, i8, i16 }
%struct.tcpcl_peer_t = type { %struct._address, i32, i8, ptr, i8, i8, ptr, i16, i64, i64, ptr, i8, ptr, ptr }
%struct._address = type { i32, i32, ptr, ptr }
%struct._packet_info = type { ptr, ptr, i32, i32, %struct.nstime_t, %struct.nstime_t, %struct.nstime_t, i8, ptr, ptr, ptr, ptr, %struct._address, %struct._address, %struct._address, %struct._address, %struct._address, %struct._address, i32, ptr, i8, [3 x i8], %struct.anon, i32, i32, i32, i32, ptr, i8, ptr, ptr, i16, i16, i32, i32, i16, i32, i32, ptr, ptr, ptr, i8, i8, i16, i16, i16, i32, i16, i16, ptr, ptr, ptr, ptr, ptr, i32, i32 }
%struct.nstime_t = type { i64, i32 }
%struct.anon = type { i8, [3 x i8] }

@proto_tcpcl = internal global i32 0, align 4

; Function Attrs: inlinehint nounwind null_pointer_is_valid sspstrong uwtable
define internal void @clear_address(ptr noundef %0) #4 {
  %2 = alloca ptr, align 8
  store ptr %0, ptr %2, align 8
  %3 = load ptr, ptr %2, align 8
  %4 = getelementptr inbounds nuw %struct._address, ptr %3, i32 0, i32 0
  store i32 0, ptr %4, align 8
  %5 = load ptr, ptr %2, align 8
  %6 = getelementptr inbounds nuw %struct._address, ptr %5, i32 0, i32 1
  store i32 0, ptr %6, align 4
  %7 = load ptr, ptr %2, align 8
  %8 = getelementptr inbounds nuw %struct._address, ptr %7, i32 0, i32 2
  store ptr null, ptr %8, align 8
  %9 = load ptr, ptr %2, align 8
  %10 = getelementptr inbounds nuw %struct._address, ptr %9, i32 0, i32 3
  store ptr null, ptr %10, align 8
  ret void
}

; Function Attrs: inlinehint null_pointer_is_valid sspstrong uwtable
define internal void @alloc_address_wmem(ptr noundef %0, ptr noundef %1, i32 noundef %2, i32 noundef %3, ptr noundef %4) #7 {
  %6 = alloca ptr, align 8
  %7 = alloca ptr, align 8
  %8 = alloca i32, align 4
  %9 = alloca i32, align 4
  %10 = alloca ptr, align 8
  store ptr %0, ptr %6, align 8
  store ptr %1, ptr %7, align 8
  store i32 %2, ptr %8, align 4
  store i32 %3, ptr %9, align 4
  store ptr %4, ptr %10, align 8
  br label %11

11:                                               ; preds = %5
  br label %12

12:                                               ; preds = %11
  %13 = load ptr, ptr %7, align 8
  call void @clear_address(ptr noundef %13)
  %14 = load i32, ptr %8, align 4
  %15 = load ptr, ptr %7, align 8
  %16 = getelementptr inbounds nuw %struct._address, ptr %15, i32 0, i32 0
  store i32 %14, ptr %16, align 8
  %17 = load i32, ptr %9, align 4
  %18 = icmp eq i32 %17, 0
  br i1 %18, label %19, label %22

19:                                               ; preds = %12
  br label %20

20:                                               ; preds = %19
  br label %21

21:                                               ; preds = %20
  br label %39

22:                                               ; preds = %12
  br label %23

23:                                               ; preds = %22
  br label %24

24:                                               ; preds = %23
  br label %25

25:                                               ; preds = %24
  br label %26

26:                                               ; preds = %25
  %27 = load ptr, ptr %6, align 8
  %28 = load ptr, ptr %10, align 8
  %29 = load i32, ptr %9, align 4
  %30 = sext i32 %29 to i64
  %31 = call ptr @wmem_memdup(ptr noundef %27, ptr noundef %28, i64 noundef %30) #14
  %32 = load ptr, ptr %7, align 8
  %33 = getelementptr inbounds nuw %struct._address, ptr %32, i32 0, i32 3
  store ptr %31, ptr %33, align 8
  %34 = load ptr, ptr %7, align 8
  %35 = getelementptr inbounds nuw %struct._address, ptr %34, i32 0, i32 2
  store ptr %31, ptr %35, align 8
  %36 = load i32, ptr %9, align 4
  %37 = load ptr, ptr %7, align 8
  %38 = getelementptr inbounds nuw %struct._address, ptr %37, i32 0, i32 1
  store i32 %36, ptr %38, align 4
  br label %39

39:                                               ; preds = %26, %21
  ret void
}

; Function Attrs: null_pointer_is_valid sspstrong uwtable
define internal ptr @tcpcl_peer_new() #0 {
  %1 = alloca ptr, align 8
  call void @llvm.lifetime.start.p0(i64 8, ptr %1) #11
  %2 = call ptr @wmem_file_scope()
  %3 = call noalias ptr @wmem_alloc0(ptr noundef %2, i64 noundef 112) #12
  store ptr %3, ptr %1, align 8
  %4 = load ptr, ptr %1, align 8
  %5 = getelementptr inbounds nuw %struct.tcpcl_peer_t, ptr %4, i32 0, i32 0
  call void @clear_address(ptr noundef %5)
  %6 = call ptr @wmem_file_scope()
  %7 = call noalias ptr @wmem_map_new(ptr noundef %6, ptr noundef @tcpcl_frame_loc_hash, ptr noundef @tcpcl_frame_loc_equal)
  %8 = load ptr, ptr %1, align 8
  %9 = getelementptr inbounds nuw %struct.tcpcl_peer_t, ptr %8, i32 0, i32 12
  store ptr %7, ptr %9, align 8
  %10 = call ptr @wmem_file_scope()
  %11 = call noalias ptr @wmem_map_new(ptr noundef %10, ptr noundef @g_int64_hash, ptr noundef @g_int64_equal)
  %12 = load ptr, ptr %1, align 8
  %13 = getelementptr inbounds nuw %struct.tcpcl_peer_t, ptr %12, i32 0, i32 13
  store ptr %11, ptr %13, align 8
  %14 = load ptr, ptr %1, align 8
  call void @llvm.lifetime.end.p0(i64 8, ptr %1) #11
  ret ptr %14
}

; Function Attrs: inlinehint null_pointer_is_valid sspstrong uwtable
define internal void @copy_address_wmem(ptr noundef %0, ptr noundef %1, ptr noundef %2) #7 {
  %4 = alloca ptr, align 8
  %5 = alloca ptr, align 8
  %6 = alloca ptr, align 8
  store ptr %0, ptr %4, align 8
  store ptr %1, ptr %5, align 8
  store ptr %2, ptr %6, align 8
  %7 = load ptr, ptr %4, align 8
  %8 = load ptr, ptr %5, align 8
  %9 = load ptr, ptr %6, align 8
  %10 = getelementptr inbounds nuw %struct._address, ptr %9, i32 0, i32 0
  %11 = load i32, ptr %10, align 8
  %12 = load ptr, ptr %6, align 8
  %13 = getelementptr inbounds nuw %struct._address, ptr %12, i32 0, i32 1
  %14 = load i32, ptr %13, align 4
  %15 = load ptr, ptr %6, align 8
  %16 = getelementptr inbounds nuw %struct._address, ptr %15, i32 0, i32 2
  %17 = load ptr, ptr %16, align 8
  call void @alloc_address_wmem(ptr noundef %7, ptr noundef %8, i32 noundef %11, i32 noundef %14, ptr noundef %17)
  ret void
}

; Function Attrs: null_pointer_is_valid sspstrong uwtable
define internal ptr @tcpcl_conversation_new() #0 {
  %1 = alloca ptr, align 8
  call void @llvm.lifetime.start.p0(i64 8, ptr %1) #11
  %2 = call ptr @wmem_file_scope()
  %3 = call noalias ptr @wmem_alloc0(ptr noundef %2, i64 noundef 48) #12
  store ptr %3, ptr %1, align 8
  %4 = call ptr @tcpcl_peer_new()
  %5 = load ptr, ptr %1, align 8
  %6 = getelementptr inbounds nuw %struct.tcpcl_conversation_t, ptr %5, i32 0, i32 0
  store ptr %4, ptr %6, align 8
  %7 = call ptr @tcpcl_peer_new()
  %8 = load ptr, ptr %1, align 8
  %9 = getelementptr inbounds nuw %struct.tcpcl_conversation_t, ptr %8, i32 0, i32 1
  store ptr %7, ptr %9, align 8
  %10 = load ptr, ptr %1, align 8
  call void @llvm.lifetime.end.p0(i64 8, ptr %1) #11
  ret ptr %10
}

; Function Attrs: null_pointer_is_valid sspstrong uwtable
define internal i32 @dissect_tcpcl(ptr noundef %0, ptr noundef %1, ptr noundef %2, ptr noundef %3) #0 {
  %5 = alloca ptr, align 8
  %6 = alloca ptr, align 8
  %7 = alloca ptr, align 8
  %8 = alloca ptr, align 8
  %9 = alloca ptr, align 8
  %10 = alloca ptr, align 8
  %11 = alloca i32, align 4
  store ptr %0, ptr %5, align 8
  store ptr %1, ptr %6, align 8
  store ptr %2, ptr %7, align 8
  store ptr %3, ptr %8, align 8
  call void @llvm.lifetime.start.p0(i64 8, ptr %9) #11
  %12 = load ptr, ptr %6, align 8
  %13 = call ptr @find_or_create_conversation(ptr noundef %12)
  store ptr %13, ptr %9, align 8
  call void @llvm.lifetime.start.p0(i64 8, ptr %10) #11
  %14 = load ptr, ptr %9, align 8
  %15 = load i32, ptr @proto_tcpcl, align 4
  %16 = call ptr @conversation_get_proto_data(ptr noundef %14, i32 noundef %15)
  store ptr %16, ptr %10, align 8
  %17 = load ptr, ptr %10, align 8
  %18 = icmp ne ptr %17, null
  br i1 %18, label %52, label %19

19:                                               ; preds = %4
  %20 = call ptr @tcpcl_conversation_new()
  store ptr %20, ptr %10, align 8
  %21 = load ptr, ptr %9, align 8
  %22 = load i32, ptr @proto_tcpcl, align 4
  %23 = load ptr, ptr %10, align 8
  call void @conversation_add_proto_data(ptr noundef %21, i32 noundef %22, ptr noundef %23)
  %24 = call ptr @wmem_file_scope()
  %25 = load ptr, ptr %10, align 8
  %26 = getelementptr inbounds nuw %struct.tcpcl_conversation_t, ptr %25, i32 0, i32 0
  %27 = load ptr, ptr %26, align 8
  %28 = getelementptr inbounds nuw %struct.tcpcl_peer_t, ptr %27, i32 0, i32 0
  %29 = load ptr, ptr %6, align 8
  %30 = getelementptr inbounds nuw %struct._packet_info, ptr %29, i32 0, i32 16
  call void @copy_address_wmem(ptr noundef %24, ptr noundef %28, ptr noundef %30)
  %31 = load ptr, ptr %6, align 8
  %32 = getelementptr inbounds nuw %struct._packet_info, ptr %31, i32 0, i32 24
  %33 = load i32, ptr %32, align 4
  %34 = load ptr, ptr %10, align 8
  %35 = getelementptr inbounds nuw %struct.tcpcl_conversation_t, ptr %34, i32 0, i32 0
  %36 = load ptr, ptr %35, align 8
  %37 = getelementptr inbounds nuw %struct.tcpcl_peer_t, ptr %36, i32 0, i32 1
  store i32 %33, ptr %37, align 8
  %38 = call ptr @wmem_file_scope()
  %39 = load ptr, ptr %10, align 8
  %40 = getelementptr inbounds nuw %struct.tcpcl_conversation_t, ptr %39, i32 0, i32 1
  %41 = load ptr, ptr %40, align 8
  %42 = getelementptr inbounds nuw %struct.tcpcl_peer_t, ptr %41, i32 0, i32 0
  %43 = load ptr, ptr %6, align 8
  %44 = getelementptr inbounds nuw %struct._packet_info, ptr %43, i32 0, i32 17
  call void @copy_address_wmem(ptr noundef %38, ptr noundef %42, ptr noundef %44)
  %45 = load ptr, ptr %6, align 8
  %46 = getelementptr inbounds nuw %struct._packet_info, ptr %45, i32 0, i32 25
  %47 = load i32, ptr %46, align 8
  %48 = load ptr, ptr %10, align 8
  %49 = getelementptr inbounds nuw %struct.tcpcl_conversation_t, ptr %48, i32 0, i32 1
  %50 = load ptr, ptr %49, align 8
  %51 = getelementptr inbounds nuw %struct.tcpcl_peer_t, ptr %50, i32 0, i32 1
  store i32 %47, ptr %51, align 8
  br label %52

52:                                               ; preds = %19, %4
  %53 = load ptr, ptr %5, align 8
  %54 = load ptr, ptr %6, align 8
  %55 = load ptr, ptr %7, align 8
  call void @tcp_dissect_pdus(ptr noundef %53, ptr noundef %54, ptr noundef %55, i1 noundef zeroext true, i32 noundef 1, ptr noundef @get_message_len, ptr noundef @dissect_message, ptr noundef null)
  call void @llvm.lifetime.start.p0(i64 4, ptr %11) #11
  %56 = load ptr, ptr %5, align 8
  %57 = call i32 @tvb_captured_length(ptr noundef %56)
  store i32 %57, ptr %11, align 4
  %58 = load i32, ptr %11, align 4
  call void @llvm.lifetime.end.p0(i64 4, ptr %11) #11
  call void @llvm.lifetime.end.p0(i64 8, ptr %10) #11
  call void @llvm.lifetime.end.p0(i64 8, ptr %9) #11
  ret i32 %58
}