; Function Attrs: null_pointer_is_valid sspstrong uwtable
define internal i32 @dissect_tcpcl(ptr noundef %0, ptr noundef %1, ptr noundef %2, ptr readnone captures(none) %3) #0 {
  %5 = tail call ptr @find_or_create_conversation(ptr noundef %1)
  %6 = load i32, ptr @proto_tcpcl, align 4
  %7 = tail call ptr @conversation_get_proto_data(ptr noundef %5, i32 noundef %6)
  %.not = icmp eq ptr %7, null
  br i1 %.not, label %8, label %67

8:                                                ; preds = %4
  %9 = tail call ptr @wmem_file_scope()
  %10 = tail call noalias dereferenceable_or_null(48) ptr @wmem_alloc0(ptr noundef %9, i64 noundef 48) #12
  %11 = tail call ptr @wmem_file_scope()
  %12 = tail call noalias dereferenceable_or_null(112) ptr @wmem_alloc0(ptr noundef %11, i64 noundef 112) #12
  tail call void @llvm.memset.p0.i64(ptr noundef align 8 dereferenceable(24) %12, i8 0, i64 24, i1 false)
  %13 = tail call ptr @wmem_file_scope()
  %14 = tail call noalias ptr @wmem_map_new(ptr noundef %13, ptr noundef nonnull @tcpcl_frame_loc_hash, ptr noundef nonnull @tcpcl_frame_loc_equal)
  %15 = getelementptr inbounds nuw i8, ptr %12, i64 96
  store ptr %14, ptr %15, align 8
  %16 = tail call ptr @wmem_file_scope()
  %17 = tail call noalias ptr @wmem_map_new(ptr noundef %16, ptr noundef nonnull @g_int64_hash, ptr noundef nonnull @g_int64_equal)
  %18 = getelementptr inbounds nuw i8, ptr %12, i64 104
  store ptr %17, ptr %18, align 8
  store ptr %12, ptr %10, align 8
  %19 = tail call ptr @wmem_file_scope()
  %20 = tail call noalias dereferenceable_or_null(112) ptr @wmem_alloc0(ptr noundef %19, i64 noundef 112) #12
  tail call void @llvm.memset.p0.i64(ptr noundef align 8 dereferenceable(24) %20, i8 0, i64 24, i1 false)
  %21 = tail call ptr @wmem_file_scope()
  %22 = tail call noalias ptr @wmem_map_new(ptr noundef %21, ptr noundef nonnull @tcpcl_frame_loc_hash, ptr noundef nonnull @tcpcl_frame_loc_equal)
  %23 = getelementptr inbounds nuw i8, ptr %20, i64 96
  store ptr %22, ptr %23, align 8
  %24 = tail call ptr @wmem_file_scope()
  %25 = tail call noalias ptr @wmem_map_new(ptr noundef %24, ptr noundef nonnull @g_int64_hash, ptr noundef nonnull @g_int64_equal)
  %26 = getelementptr inbounds nuw i8, ptr %20, i64 104
  store ptr %25, ptr %26, align 8
  %27 = getelementptr inbounds nuw i8, ptr %10, i64 8
  store ptr %20, ptr %27, align 8
  %28 = load i32, ptr @proto_tcpcl, align 4
  tail call void @conversation_add_proto_data(ptr noundef %5, i32 noundef %28, ptr noundef %10)
  %29 = tail call ptr @wmem_file_scope()
  %30 = load ptr, ptr %10, align 8
  %31 = getelementptr inbounds nuw i8, ptr %1, i64 208
  %32 = load i32, ptr %31, align 8
  %33 = getelementptr inbounds nuw i8, ptr %1, i64 212
  %34 = load i32, ptr %33, align 4
  %35 = getelementptr inbounds nuw i8, ptr %1, i64 216
  %36 = load ptr, ptr %35, align 8
  tail call void @llvm.memset.p0.i64(ptr noundef align 8 dereferenceable(24) %30, i8 0, i64 24, i1 false)
  store i32 %32, ptr %30, align 8
  %37 = icmp eq i32 %34, 0
  br i1 %37, label %copy_address_wmem.exit, label %38

38:                                               ; preds = %8
  %39 = sext i32 %34 to i64
  %40 = tail call ptr @wmem_memdup(ptr noundef %29, ptr noundef %36, i64 noundef %39) #13
  %41 = getelementptr inbounds nuw i8, ptr %30, i64 16
  store ptr %40, ptr %41, align 8
  %42 = getelementptr inbounds nuw i8, ptr %30, i64 8
  store ptr %40, ptr %42, align 8
  %43 = getelementptr inbounds nuw i8, ptr %30, i64 4
  store i32 %34, ptr %43, align 4
  br label %copy_address_wmem.exit

copy_address_wmem.exit:                           ; preds = %8, %38
  %44 = getelementptr inbounds nuw i8, ptr %1, i64 284
  %45 = load i32, ptr %44, align 4
  %46 = load ptr, ptr %10, align 8
  %47 = getelementptr inbounds nuw i8, ptr %46, i64 24
  store i32 %45, ptr %47, align 8
  %48 = tail call ptr @wmem_file_scope()
  %49 = load ptr, ptr %27, align 8
  %50 = getelementptr inbounds nuw i8, ptr %1, i64 232
  %51 = load i32, ptr %50, align 8
  %52 = getelementptr inbounds nuw i8, ptr %1, i64 236
  %53 = load i32, ptr %52, align 4
  %54 = getelementptr inbounds nuw i8, ptr %1, i64 240
  %55 = load ptr, ptr %54, align 8
  tail call void @llvm.memset.p0.i64(ptr noundef align 8 dereferenceable(24) %49, i8 0, i64 24, i1 false)
  store i32 %51, ptr %49, align 8
  %56 = icmp eq i32 %53, 0
  br i1 %56, label %copy_address_wmem.exit17, label %57

57:                                               ; preds = %copy_address_wmem.exit
  %58 = sext i32 %53 to i64
  %59 = tail call ptr @wmem_memdup(ptr noundef %48, ptr noundef %55, i64 noundef %58) #13
  %60 = getelementptr inbounds nuw i8, ptr %49, i64 16
  store ptr %59, ptr %60, align 8
  %61 = getelementptr inbounds nuw i8, ptr %49, i64 8
  store ptr %59, ptr %61, align 8
  %62 = getelementptr inbounds nuw i8, ptr %49, i64 4
  store i32 %53, ptr %62, align 4
  br label %copy_address_wmem.exit17

copy_address_wmem.exit17:                         ; preds = %copy_address_wmem.exit, %57
  %63 = getelementptr inbounds nuw i8, ptr %1, i64 288
  %64 = load i32, ptr %63, align 8
  %65 = load ptr, ptr %27, align 8
  %66 = getelementptr inbounds nuw i8, ptr %65, i64 24
  store i32 %64, ptr %66, align 8
  br label %67

67:                                               ; preds = %copy_address_wmem.exit17, %4
  tail call void @tcp_dissect_pdus(ptr noundef %0, ptr noundef %1, ptr noundef %2, i1 noundef zeroext true, i32 noundef 1, ptr noundef nonnull @get_message_len, ptr noundef nonnull @dissect_message, ptr noundef null)
  %68 = tail call i32 @tvb_captured_length(ptr noundef %0)
  ret i32 %68
}